target datalayout = "e-m:e-p270:32:32-p271:32:32-p272:64:64-i64:64-i128:128-f80:128-n8:16:32:64-S128"
target triple = "x86_64-pc-linux-gnu"

%struct.PJconsts = type { ptr, ptr, ptr, ptr, ptr, ptr, ptr, ptr, ptr, ptr, ptr, ptr, i32, ptr, ptr, ptr, ptr, ptr, ptr, ptr, ptr, double, double, double, double, double, double, double, double, double, double, double, double, double, double, double, double, double, double, double, double, double, double, i32, i32, i32, i32, i32, i32, i32, i32, i32, i32, i32, ptr, ptr, ptr, ptr, ptr, ptr, double, double, double, double, double, double, double, double, double, double, double, i32, [7 x double], i32, ptr, ptr, double, double, i32, [4 x i8], %"class.std::shared_ptr", i8, double, i8, %"class.std::__cxx11::basic_string", %"class.std::__cxx11::basic_string", %"class.std::__cxx11::basic_string", i8, %"class.std::vector", i32, %"class.std::vector.3", i32, i8, i8, i8, ptr }
%"class.std::shared_ptr" = type { %"class.std::__shared_ptr" }
%"class.std::__shared_ptr" = type { ptr, %"class.std::__shared_count" }
%"class.std::__shared_count" = type { ptr }
%"class.std::__cxx11::basic_string" = type { %"struct.std::__cxx11::basic_string<char>::_Alloc_hider", i64, %union.anon }
%"struct.std::__cxx11::basic_string<char>::_Alloc_hider" = type { ptr }
%union.anon = type { i64, [8 x i8] }
%"class.std::vector" = type { %"struct.std::_Vector_base" }
%"struct.std::_Vector_base" = type { %"struct.std::_Vector_base<osgeo::proj::operation::GridDescription, std::allocator<osgeo::proj::operation::GridDescription>>::_Vector_impl" }
%"struct.std::_Vector_base<osgeo::proj::operation::GridDescription, std::allocator<osgeo::proj::operation::GridDescription>>::_Vector_impl" = type { %"struct.std::_Vector_base<osgeo::proj::operation::GridDescription, std::allocator<osgeo::proj::operation::GridDescription>>::_Vector_impl_data" }
%"struct.std::_Vector_base<osgeo::proj::operation::GridDescription, std::allocator<osgeo::proj::operation::GridDescription>>::_Vector_impl_data" = type { ptr, ptr, ptr }
%"class.std::vector.3" = type { %"struct.std::_Vector_base.4" }
%"struct.std::_Vector_base.4" = type { %"struct.std::_Vector_base<PJCoordOperation, std::allocator<PJCoordOperation>>::_Vector_impl" }
%"struct.std::_Vector_base<PJCoordOperation, std::allocator<PJCoordOperation>>::_Vector_impl" = type { %"struct.std::_Vector_base<PJCoordOperation, std::allocator<PJCoordOperation>>::_Vector_impl_data" }
%"struct.std::_Vector_base<PJCoordOperation, std::allocator<PJCoordOperation>>::_Vector_impl_data" = type { ptr, ptr, ptr }
%"struct.(anonymous namespace)::pj_opaque_vertoffset" = type { double, double, double, double, double }
%struct.PJ_XYZ = type { double, double, double }
%struct.PJ_LPZ = type { double, double, double }

; Function Attrs: mustprogress nounwind uwtable
define internal noundef double @_ZL18get_forward_offsetPK8PJconstsdd(ptr noundef %0, double noundef %1, double noundef %2) #4 {
  %4 = alloca ptr, align 8
  %5 = alloca double, align 8
  %6 = alloca double, align 8
  %7 = alloca ptr, align 8
  store ptr %0, ptr %4, align 8, !tbaa !3
  store double %1, ptr %5, align 8, !tbaa !55
  store double %2, ptr %6, align 8, !tbaa !55
  call void @llvm.lifetime.start.p0(i64 8, ptr %7) #7
  %8 = load ptr, ptr %4, align 8, !tbaa !3
  %9 = getelementptr inbounds nuw %struct.PJconsts, ptr %8, i32 0, i32 11
  %10 = load ptr, ptr %9, align 8, !tbaa !43
  store ptr %10, ptr %7, align 8, !tbaa !41
  %11 = load ptr, ptr %7, align 8, !tbaa !41
  %12 = getelementptr inbounds nuw %"struct.(anonymous namespace)::pj_opaque_vertoffset", ptr %11, i32 0, i32 2
  %13 = load double, ptr %12, align 8, !tbaa !52
  %14 = load ptr, ptr %7, align 8, !tbaa !41
  %15 = getelementptr inbounds nuw %"struct.(anonymous namespace)::pj_opaque_vertoffset", ptr %14, i32 0, i32 1
  %16 = load double, ptr %15, align 8, !tbaa !51
  %17 = load ptr, ptr %7, align 8, !tbaa !41
  %18 = getelementptr inbounds nuw %"struct.(anonymous namespace)::pj_opaque_vertoffset", ptr %17, i32 0, i32 3
  %19 = load double, ptr %18, align 8, !tbaa !58
  %20 = fmul double %16, %19
  %21 = load double, ptr %5, align 8, !tbaa !55
  %22 = load ptr, ptr %4, align 8, !tbaa !3
  %23 = getelementptr inbounds nuw %struct.PJconsts, ptr %22, i32 0, i32 61
  %24 = load double, ptr %23, align 8, !tbaa !53
  %25 = fsub double %21, %24
  %26 = call double @llvm.fmuladd.f64(double %20, double %25, double %13)
  %27 = load ptr, ptr %7, align 8, !tbaa !41
  %28 = getelementptr inbounds nuw %"struct.(anonymous namespace)::pj_opaque_vertoffset", ptr %27, i32 0, i32 0
  %29 = load double, ptr %28, align 8, !tbaa !49
  %30 = load ptr, ptr %7, align 8, !tbaa !41
  %31 = getelementptr inbounds nuw %"struct.(anonymous namespace)::pj_opaque_vertoffset", ptr %30, i32 0, i32 4
  %32 = load double, ptr %31, align 8, !tbaa !59
  %33 = fmul double %29, %32
  %34 = load double, ptr %6, align 8, !tbaa !55
  %35 = fmul double %33, %34
  %36 = load double, ptr %5, align 8, !tbaa !55
  %37 = call double @cos(double noundef %36) #7, !tbaa !54
  %38 = call double @llvm.fmuladd.f64(double %35, double %37, double %26)
  call void @llvm.lifetime.end.p0(i64 8, ptr %7) #7
  ret double %38
}

; Function Attrs: mustprogress uwtable
define internal void @_ZL10forward_3d6PJ_LPZP8PJconsts(ptr dead_on_unwind noalias writable sret(%struct.PJ_XYZ) align 8 %0, ptr noundef byval(%struct.PJ_LPZ) align 8 %1, ptr noundef %2) #0 {
  %4 = alloca ptr, align 8
  store ptr %2, ptr %4, align 8, !tbaa !3
  %5 = getelementptr inbounds nuw %struct.PJ_LPZ, ptr %1, i32 0, i32 0
  %6 = load double, ptr %5, align 8, !tbaa !60
  %7 = load ptr, ptr %4, align 8, !tbaa !3
  %8 = getelementptr inbounds nuw %struct.PJconsts, ptr %7, i32 0, i32 60
  %9 = load double, ptr %8, align 8, !tbaa !62
  %10 = fadd double %6, %9
  %11 = getelementptr inbounds nuw %struct.PJ_XYZ, ptr %0, i32 0, i32 0
  store double %10, ptr %11, align 8, !tbaa !63
  %12 = getelementptr inbounds nuw %struct.PJ_LPZ, ptr %1, i32 0, i32 1
  %13 = load double, ptr %12, align 8, !tbaa !65
  %14 = getelementptr inbounds nuw %struct.PJ_XYZ, ptr %0, i32 0, i32 1
  store double %13, ptr %14, align 8, !tbaa !66
  %15 = getelementptr inbounds nuw %struct.PJ_LPZ, ptr %1, i32 0, i32 2
  %16 = load double, ptr %15, align 8, !tbaa !67
  %17 = load ptr, ptr %4, align 8, !tbaa !3
  %18 = getelementptr inbounds nuw %struct.PJ_LPZ, ptr %1, i32 0, i32 1
  %19 = load double, ptr %18, align 8, !tbaa !65
  %20 = getelementptr inbounds nuw %struct.PJ_LPZ, ptr %1, i32 0, i32 0
  %21 = load double, ptr %20, align 8, !tbaa !60
  %22 = call noundef double @_ZL18get_forward_offsetPK8PJconstsdd(ptr noundef %17, double noundef %19, double noundef %21)
  %23 = fadd double %16, %22
  %24 = getelementptr inbounds nuw %struct.PJ_XYZ, ptr %0, i32 0, i32 2
  store double %23, ptr %24, align 8, !tbaa !68
  ret void
}